(i__main__
NewBoard
p0
(dp1
S'width'
p2
I8
sS'turn'
p3
I0
sS'pos'
p4
(lp5
(lp6
(lp7
I0
aI00
aaNa(lp8
I0
aI00
aaNaNaNa(I1
I00
tp9
aNaa(lp10
Na(lp11
I0
aI00
aaNaNaNa(I1
I00
tp12
aNa(I1
I00
tp13
aa(lp14
(lp15
I0
aI00
aaNa(lp16
I0
aI00
aaNaNaNa(I1
I00
tp17
aNaa(lp18
Na(lp19
I0
aI00
aaNaNaNa(I1
I00
tp20
aNa(I1
I00
tp21
aa(lp22
(lp23
I0
aI00
aaNa(lp24
I0
aI00
aaNaNaNa(I1
I00
tp25
aNaa(lp26
Na(lp27
I0
aI00
aaNaNaNa(I1
I00
tp28
aNa(I1
I00
tp29
aa(lp30
(lp31
I0
aI00
aaNa(lp32
I0
aI00
aaNaNaNa(I1
I00
tp33
aNaa(lp34
Na(lp35
I0
aI00
aaNaNaNa(I1
I00
tp36
aNa(I1
I00
tp37
aasS'height'
p38
I8
sb.